target datalayout = "e-m:e-p270:32:32-p271:32:32-p272:64:64-i64:64-i128:128-f80:128-n8:16:32:64-S128"
target triple = "x86_64-pc-linux-gnu"

%class.QDir = type { %class.QSharedDataPointer.55 }
%class.QSharedDataPointer.55 = type { ptr }
%class.QString = type { ptr }

; Function Attrs: mustprogress uwtable
define void @_ZN22MeshShaderRenderPlugin14initActionListEv(ptr noundef nonnull align 8 dereferenceable(104) %0) #5 align 2 personality ptr @__gxx_personality_v0 {
  %2 = alloca ptr, align 8
  %3 = alloca %class.QDir, align 8
  %4 = alloca %class.QString, align 8
  %5 = alloca ptr, align 8
  %6 = alloca i32, align 4
  %7 = alloca %class.QDir, align 8
  %8 = alloca %class.QString, align 8
  store ptr %0, ptr %2, align 8
  %9 = load ptr, ptr %2, align 8
  call void @_ZN7meshlab18defaultShadersPathEv(ptr dead_on_unwind writable sret(%class.QString) align 8 %4)
  invoke void @_ZN4QDirC1ERK7QString(ptr noundef nonnull align 8 dereferenceable(8) %3, ptr noundef nonnull align 8 dereferenceable(8) %4)
          to label %10 unwind label %15

10:                                               ; preds = %1
  call void @_ZN7QStringD2Ev(ptr noundef nonnull align 8 dereferenceable(8) %4) #3
  invoke void @_ZN22MeshShaderRenderPlugin11loadShadersERK4QDir(ptr noundef nonnull align 8 dereferenceable(104) %9, ptr noundef nonnull align 8 dereferenceable(8) %3)
          to label %11 unwind label %19

11:                                               ; preds = %10
  invoke void @_ZN18MeshLabApplication20extraShadersLocationEv(ptr dead_on_unwind writable sret(%class.QString) align 8 %8)
          to label %12 unwind label %19

12:                                               ; preds = %11
  invoke void @_ZN4QDirC1ERK7QString(ptr noundef nonnull align 8 dereferenceable(8) %7, ptr noundef nonnull align 8 dereferenceable(8) %8)
          to label %13 unwind label %23

13:                                               ; preds = %12
  invoke void @_ZN22MeshShaderRenderPlugin11loadShadersERK4QDir(ptr noundef nonnull align 8 dereferenceable(104) %9, ptr noundef nonnull align 8 dereferenceable(8) %7)
          to label %14 unwind label %27

14:                                               ; preds = %13
  call void @_ZN4QDirD1Ev(ptr noundef nonnull align 8 dereferenceable(8) %7) #3
  call void @_ZN7QStringD2Ev(ptr noundef nonnull align 8 dereferenceable(8) %8) #3
  call void @_ZN4QDirD1Ev(ptr noundef nonnull align 8 dereferenceable(8) %3) #3
  ret void

15:                                               ; preds = %1
  %16 = landingpad { ptr, i32 }
          cleanup
  %17 = extractvalue { ptr, i32 } %16, 0
  store ptr %17, ptr %5, align 8
  %18 = extractvalue { ptr, i32 } %16, 1
  store i32 %18, ptr %6, align 4
  call void @_ZN7QStringD2Ev(ptr noundef nonnull align 8 dereferenceable(8) %4) #3
  br label %33

19:                                               ; preds = %11, %10
  %20 = landingpad { ptr, i32 }
          cleanup
  %21 = extractvalue { ptr, i32 } %20, 0
  store ptr %21, ptr %5, align 8
  %22 = extractvalue { ptr, i32 } %20, 1
  store i32 %22, ptr %6, align 4
  br label %32

23:                                               ; preds = %12
  %24 = landingpad { ptr, i32 }
          cleanup
  %25 = extractvalue { ptr, i32 } %24, 0
  store ptr %25, ptr %5, align 8
  %26 = extractvalue { ptr, i32 } %24, 1
  store i32 %26, ptr %6, align 4
  br label %31

27:                                               ; preds = %13
  %28 = landingpad { ptr, i32 }
          cleanup
  %29 = extractvalue { ptr, i32 } %28, 0
  store ptr %29, ptr %5, align 8
  %30 = extractvalue { ptr, i32 } %28, 1
  store i32 %30, ptr %6, align 4
  call void @_ZN4QDirD1Ev(ptr noundef nonnull align 8 dereferenceable(8) %7) #3
  br label %31

31:                                               ; preds = %27, %23
  call void @_ZN7QStringD2Ev(ptr noundef nonnull align 8 dereferenceable(8) %8) #3
  br label %32

32:                                               ; preds = %31, %19
  call void @_ZN4QDirD1Ev(ptr noundef nonnull align 8 dereferenceable(8) %3) #3
  br label %33

33:                                               ; preds = %32, %15
  %34 = load ptr, ptr %5, align 8
  %35 = load i32, ptr %6, align 4
  %36 = insertvalue { ptr, i32 } poison, ptr %34, 0
  %37 = insertvalue { ptr, i32 } %36, i32 %35, 1
  resume { ptr, i32 } %37
}