; Function Attrs: mustprogress uwtable
define void @_ZN22MeshShaderRenderPlugin14initActionListEv(ptr noundef nonnull align 8 dereferenceable(104) %0) local_unnamed_addr #9 align 2 personality ptr @__gxx_personality_v0 {
  %2 = alloca %class.QDir, align 8
  %3 = alloca %class.QString, align 8
  %4 = alloca %class.QDir, align 8
  %5 = alloca %class.QString, align 8
  call void @_ZN7meshlab18defaultShadersPathEv(ptr dead_on_unwind nonnull writable sret(%class.QString) align 8 %3)
  invoke void @_ZN4QDirC1ERK7QString(ptr noundef nonnull align 8 dereferenceable(8) %2, ptr noundef nonnull align 8 dereferenceable(8) %3)
          to label %6 unwind label %19

6:                                                ; preds = %1
  %7 = load ptr, ptr %3, align 8
  %8 = load atomic i32, ptr %7 monotonic, align 4
  switch i32 %8, label %_ZN9QtPrivate8RefCount5derefEv.exit.i [
    i32 0, label %_ZN9QtPrivate8RefCount5derefEv.exit.thread2.i
    i32 -1, label %_ZN7QStringD2Ev.exit
  ]

_ZN9QtPrivate8RefCount5derefEv.exit.i:            ; preds = %6
  %9 = atomicrmw sub ptr %7, i32 1 seq_cst, align 4
  %.not.i = icmp eq i32 %9, 1
  br i1 %.not.i, label %_ZN9QtPrivate8RefCount5derefEv.exit._ZN9QtPrivate8RefCount5derefEv.exit.thread2_crit_edge.i, label %_ZN7QStringD2Ev.exit

_ZN9QtPrivate8RefCount5derefEv.exit._ZN9QtPrivate8RefCount5derefEv.exit.thread2_crit_edge.i: ; preds = %_ZN9QtPrivate8RefCount5derefEv.exit.i
  %.pre.i = load ptr, ptr %3, align 8
  br label %_ZN9QtPrivate8RefCount5derefEv.exit.thread2.i

_ZN9QtPrivate8RefCount5derefEv.exit.thread2.i:    ; preds = %_ZN9QtPrivate8RefCount5derefEv.exit._ZN9QtPrivate8RefCount5derefEv.exit.thread2_crit_edge.i, %6
  %10 = phi ptr [ %.pre.i, %_ZN9QtPrivate8RefCount5derefEv.exit._ZN9QtPrivate8RefCount5derefEv.exit.thread2_crit_edge.i ], [ %7, %6 ]
  call void @_ZN10QArrayData10deallocateEPS_mm(ptr noundef %10, i64 noundef 2, i64 noundef 8) #22
  br label %_ZN7QStringD2Ev.exit

_ZN7QStringD2Ev.exit:                             ; preds = %6, %_ZN9QtPrivate8RefCount5derefEv.exit.i, %_ZN9QtPrivate8RefCount5derefEv.exit.thread2.i
  invoke void @_ZN22MeshShaderRenderPlugin11loadShadersERK4QDir(ptr noundef nonnull align 8 dereferenceable(104) %0, ptr noundef nonnull align 8 dereferenceable(8) %2)
          to label %11 unwind label %21

11:                                               ; preds = %_ZN7QStringD2Ev.exit
  invoke void @_ZN18MeshLabApplication20extraShadersLocationEv(ptr dead_on_unwind nonnull writable sret(%class.QString) align 8 %5)
          to label %12 unwind label %21

12:                                               ; preds = %11
  invoke void @_ZN4QDirC1ERK7QString(ptr noundef nonnull align 8 dereferenceable(8) %4, ptr noundef nonnull align 8 dereferenceable(8) %5)
          to label %13 unwind label %23

13:                                               ; preds = %12
  invoke void @_ZN22MeshShaderRenderPlugin11loadShadersERK4QDir(ptr noundef nonnull align 8 dereferenceable(104) %0, ptr noundef nonnull align 8 dereferenceable(8) %4)
          to label %14 unwind label %25

14:                                               ; preds = %13
  call void @_ZN4QDirD1Ev(ptr noundef nonnull align 8 dereferenceable(8) %4) #22
  %15 = load ptr, ptr %5, align 8
  %16 = load atomic i32, ptr %15 monotonic, align 4
  switch i32 %16, label %_ZN9QtPrivate8RefCount5derefEv.exit.i9 [
    i32 0, label %_ZN9QtPrivate8RefCount5derefEv.exit.thread2.i8
    i32 -1, label %_ZN7QStringD2Ev.exit13
  ]

_ZN9QtPrivate8RefCount5derefEv.exit.i9:           ; preds = %14
  %17 = atomicrmw sub ptr %15, i32 1 seq_cst, align 4
  %.not.i10 = icmp eq i32 %17, 1
  br i1 %.not.i10, label %_ZN9QtPrivate8RefCount5derefEv.exit._ZN9QtPrivate8RefCount5derefEv.exit.thread2_crit_edge.i11, label %_ZN7QStringD2Ev.exit13

_ZN9QtPrivate8RefCount5derefEv.exit._ZN9QtPrivate8RefCount5derefEv.exit.thread2_crit_edge.i11: ; preds = %_ZN9QtPrivate8RefCount5derefEv.exit.i9
  %.pre.i12 = load ptr, ptr %5, align 8
  br label %_ZN9QtPrivate8RefCount5derefEv.exit.thread2.i8

_ZN9QtPrivate8RefCount5derefEv.exit.thread2.i8:   ; preds = %_ZN9QtPrivate8RefCount5derefEv.exit._ZN9QtPrivate8RefCount5derefEv.exit.thread2_crit_edge.i11, %14
  %18 = phi ptr [ %.pre.i12, %_ZN9QtPrivate8RefCount5derefEv.exit._ZN9QtPrivate8RefCount5derefEv.exit.thread2_crit_edge.i11 ], [ %15, %14 ]
  call void @_ZN10QArrayData10deallocateEPS_mm(ptr noundef %18, i64 noundef 2, i64 noundef 8) #22
  br label %_ZN7QStringD2Ev.exit13

_ZN7QStringD2Ev.exit13:                           ; preds = %14, %_ZN9QtPrivate8RefCount5derefEv.exit.i9, %_ZN9QtPrivate8RefCount5derefEv.exit.thread2.i8
  call void @_ZN4QDirD1Ev(ptr noundef nonnull align 8 dereferenceable(8) %2) #22
  ret void

19:                                               ; preds = %1
  %20 = landingpad { ptr, i32 }
          cleanup
  call void @_ZN7QStringD2Ev(ptr noundef nonnull align 8 dereferenceable(8) %3) #22
  br label %29

21:                                               ; preds = %11, %_ZN7QStringD2Ev.exit
  %22 = landingpad { ptr, i32 }
          cleanup
  br label %28

23:                                               ; preds = %12
  %24 = landingpad { ptr, i32 }
          cleanup
  br label %27

25:                                               ; preds = %13
  %26 = landingpad { ptr, i32 }
          cleanup
  call void @_ZN4QDirD1Ev(ptr noundef nonnull align 8 dereferenceable(8) %4) #22
  br label %27

27:                                               ; preds = %25, %23
  %.pn = phi { ptr, i32 } [ %26, %25 ], [ %24, %23 ]
  call void @_ZN7QStringD2Ev(ptr noundef nonnull align 8 dereferenceable(8) %5) #22
  br label %28

28:                                               ; preds = %27, %21
  %.pn.pn = phi { ptr, i32 } [ %.pn, %27 ], [ %22, %21 ]
  call void @_ZN4QDirD1Ev(ptr noundef nonnull align 8 dereferenceable(8) %2) #22
  br label %29

29:                                               ; preds = %28, %19
  %.pn.pn.pn = phi { ptr, i32 } [ %.pn.pn, %28 ], [ %20, %19 ]
  resume { ptr, i32 } %.pn.pn.pn
}